Certificate:
    Data:
        Version: 3 (0x2)
        Serial Number: 63 (0x3f)
    Signature Algorithm: sha256WithRSAEncryption
        Issuer: C=CZ, ST=Czech Republic, O=IQsw, OU=CA, CN=Certificate Authority/emailAddress=info@iqsw.cz
        Validity
            Not Before: Nov 15 08:10:45 2017 GMT
            Not After : Nov 15 08:10:45 2018 GMT
        Subject: C=SI, ST=Slovenia, O=JK54, OU=Voucher payments, CN=11/emailAddress=info@ecoupon.pro
        Subject Public Key Info:
            Public Key Algorithm: rsaEncryption
                Public-Key: (2048 bit)
                Modulus:
                    00:ea:41:31:44:a9:a7:e1:37:b1:a3:94:d8:31:ae:
                    86:12:32:87:b9:e0:58:32:87:a0:f8:34:c3:0f:f8:
                    0c:11:ec:89:3a:44:0c:81:10:83:ab:a8:01:c6:a3:
                    db:ad:0b:78:cb:cb:d7:1c:dd:4b:5d:4f:03:d8:a6:
                    a6:27:63:70:9e:f5:50:6b:e7:4e:ba:0f:55:63:19:
                    dd:2b:d3:d9:6b:e8:ff:60:cf:a4:6a:e9:a9:0b:6e:
                    3c:21:6b:58:cc:bd:ab:e5:af:a2:be:a3:32:c3:1f:
                    1f:ad:17:f4:98:3b:d0:49:a7:60:f7:71:35:c0:98:
                    67:a3:9f:8d:38:55:37:85:e6:72:af:33:8e:45:08:
                    57:4b:ff:86:29:d1:80:c1:17:05:22:aa:e1:ba:be:
                    22:d8:c9:1c:67:de:83:20:d4:98:fa:f7:40:9d:3e:
                    d0:8a:37:03:8a:bc:dd:bc:8b:6d:26:36:dc:3e:ed:
                    44:b3:42:36:0c:d4:40:c4:bd:1e:b9:d5:38:02:2d:
                    99:dc:82:91:ec:45:80:89:d1:26:83:bd:1e:05:8d:
                    e3:5a:2b:79:19:66:19:52:36:f9:8f:e1:26:fd:ac:
                    79:1d:fd:1f:49:c6:d6:02:0c:2e:36:bb:90:35:f8:
                    2d:64:e9:a0:8d:35:ef:8e:e4:e7:62:0a:59:36:e8:
                    26:fb
                Exponent: 65537 (0x10001)
        X509v3 extensions:
            X509v3 Basic Constraints: 
                CA:FALSE
            Netscape Comment: 
                OpenSSL Generated Certificate
            X509v3 Subject Key Identifier: 
                B6:F4:06:8A:4D:79:69:43:0D:4E:60:61:06:23:E5:D1:9C:94:C2:61
            X509v3 Authority Key Identifier: 
                keyid:7F:88:08:7B:04:7F:FC:F3:98:71:1C:10:F1:68:ED:DD:59:F6:7B:E0

    Signature Algorithm: sha256WithRSAEncryption
         2a:51:0e:2b:3e:eb:0b:58:07:d4:fa:1d:40:f6:2b:cb:32:2b:
         80:80:8a:9f:3b:80:51:7d:64:47:60:b1:eb:5f:9d:42:8f:f6:
         96:71:30:fd:5e:71:1a:45:71:b5:93:a2:fd:e7:4f:b9:b4:c0:
         ac:a4:3b:6a:56:ff:ff:0b:cb:55:1e:35:69:00:4f:0b:52:c8:
         dd:9a:bd:9d:e4:ac:79:69:00:bd:d7:10:48:a7:8d:72:d1:80:
         32:1e:bb:6c:b6:13:1f:33:54:a3:e0:3d:26:e0:f4:54:e4:84:
         e3:10:15:fa:73:05:35:09:ec:77:a7:66:4e:86:b4:4d:ce:ad:
         a5:b0
-----BEGIN CERTIFICATE-----
MIIDbDCCAtWgAwIBAgIBPzANBgkqhkiG9w0BAQsFADB/MQswCQYDVQQGEwJDWjEX
MBUGA1UECAwOQ3plY2ggUmVwdWJsaWMxDTALBgNVBAoMBElRc3cxCzAJBgNVBAsM
AkNBMR4wHAYDVQQDDBVDZXJ0aWZpY2F0ZSBBdXRob3JpdHkxGzAZBgkqhkiG9w0B
CQEWDGluZm9AaXFzdy5jejAeFw0xNzExMTUwODEwNDVaFw0xODExMTUwODEwNDVa
MHgxCzAJBgNVBAYTAlNJMREwDwYDVQQIDAhTbG92ZW5pYTENMAsGA1UECgwESks1
NDEZMBcGA1UECwwQVm91Y2hlciBwYXltZW50czELMAkGA1UEAwwCMTExHzAdBgkq
hkiG9w0BCQEWEGluZm9AZWNvdXBvbi5wcm8wggEiMA0GCSqGSIb3DQEBAQUAA4IB
DwAwggEKAoIBAQDqQTFEqafhN7GjlNgxroYSMoe54Fgyh6D4NMMP+AwR7Ik6RAyB
EIOrqAHGo9utC3jLy9cc3UtdTwPYpqYnY3Ce9VBr5066D1VjGd0r09lr6P9gz6Rq
6akLbjwha1jMvavlr6K+ozLDHx+tF/SYO9BJp2D3cTXAmGejn404VTeF5nKvM45F
CFdL/4Yp0YDBFwUiquG6viLYyRxn3oMg1Jj690CdPtCKNwOKvN28i20mNtw+7USz
QjYM1EDEvR651TgCLZncgpHsRYCJ0SaDvR4FjeNaK3kZZhlSNvmP4Sb9rHkd/R9J
xtYCDC42u5A1+C1k6aCNNe+O5OdiClk26Cb7AgMBAAGjezB5MAkGA1UdEwQCMAAw
LAYJYIZIAYb4QgENBB8WHU9wZW5TU0wgR2VuZXJhdGVkIENlcnRpZmljYXRlMB0G
A1UdDgQWBBS29AaKTXlpQw1OYGEGI+XRnJTCYTAfBgNVHSMEGDAWgBR/iAh7BH/8
85hxHBDxaO3dWfZ74DANBgkqhkiG9w0BAQsFAAOBgQAqUQ4rPusLWAfU+h1A9ivL
MiuAgIqfO4BRfWRHYLHrX51Cj/aWcTD9XnEaRXG1k6L950+5tMCspDtqVv//C8tV
HjVpAE8LUsjdmr2d5Kx5aQC91xBIp41y0YAyHrtsthMfM1Sj4D0m4PRU5ITjEBX6
cwU1Cex3p2ZOhrRNzq2lsA==
-----END CERTIFICATE-----
